target datalayout = "e-m:e-p270:32:32-p271:32:32-p272:64:64-i64:64-i128:128-f80:128-n8:16:32:64-S128"
target triple = "x86_64-pc-linux-gnu"

%struct.tm = type { i32, i32, i32, i32, i32, i32, i32, i32, i32, i64, ptr }

; Function Attrs: nounwind uwtable
define internal i64 @DSTcorrect(i64 noundef %0, i64 noundef %1) #0 {
  %3 = alloca i64, align 8
  %4 = alloca i64, align 8
  %5 = alloca i64, align 8
  %6 = alloca i64, align 8
  %7 = alloca ptr, align 8
  %8 = alloca %struct.tm, align 8
  store i64 %0, ptr %3, align 8, !tbaa !4
  store i64 %1, ptr %4, align 8, !tbaa !4
  call void @llvm.lifetime.start.p0(i64 8, ptr %5) #7
  call void @llvm.lifetime.start.p0(i64 8, ptr %6) #7
  call void @llvm.lifetime.start.p0(i64 8, ptr %7) #7
  call void @llvm.lifetime.start.p0(i64 56, ptr %8) #7
  %9 = call ptr @localtime_r(ptr noundef %3, ptr noundef %8) #7
  store ptr %9, ptr %7, align 8, !tbaa !13
  %10 = load ptr, ptr %7, align 8, !tbaa !13
  %11 = getelementptr inbounds nuw %struct.tm, ptr %10, i32 0, i32 2
  %12 = load i32, ptr %11, align 8, !tbaa !47
  %13 = add nsw i32 %12, 1
  %14 = srem i32 %13, 24
  %15 = sext i32 %14 to i64
  store i64 %15, ptr %5, align 8, !tbaa !4
  %16 = call ptr @localtime_r(ptr noundef %4, ptr noundef %8) #7
  store ptr %16, ptr %7, align 8, !tbaa !13
  %17 = load ptr, ptr %7, align 8, !tbaa !13
  %18 = getelementptr inbounds nuw %struct.tm, ptr %17, i32 0, i32 2
  %19 = load i32, ptr %18, align 8, !tbaa !47
  %20 = add nsw i32 %19, 1
  %21 = srem i32 %20, 24
  %22 = sext i32 %21 to i64
  store i64 %22, ptr %6, align 8, !tbaa !4
  %23 = load i64, ptr %4, align 8, !tbaa !4
  %24 = load i64, ptr %3, align 8, !tbaa !4
  %25 = sub nsw i64 %23, %24
  %26 = load i64, ptr %5, align 8, !tbaa !4
  %27 = load i64, ptr %6, align 8, !tbaa !4
  %28 = sub nsw i64 %26, %27
  %29 = mul nsw i64 %28, 3600
  %30 = add nsw i64 %25, %29
  call void @llvm.lifetime.end.p0(i64 56, ptr %8) #7
  call void @llvm.lifetime.end.p0(i64 8, ptr %7) #7
  call void @llvm.lifetime.end.p0(i64 8, ptr %6) #7
  call void @llvm.lifetime.end.p0(i64 8, ptr %5) #7
  ret i64 %30
}

; Function Attrs: nounwind uwtable
define internal i64 @RelativeMonth(i64 noundef %0, i64 noundef %1, i64 noundef %2) #0 {
  %4 = alloca i64, align 8
  %5 = alloca i64, align 8
  %6 = alloca i64, align 8
  %7 = alloca i64, align 8
  %8 = alloca ptr, align 8
  %9 = alloca i64, align 8
  %10 = alloca i64, align 8
  %11 = alloca %struct.tm, align 8
  %12 = alloca i32, align 4
  store i64 %0, ptr %5, align 8, !tbaa !4
  store i64 %1, ptr %6, align 8, !tbaa !4
  store i64 %2, ptr %7, align 8, !tbaa !4
  call void @llvm.lifetime.start.p0(i64 8, ptr %8) #7
  call void @llvm.lifetime.start.p0(i64 8, ptr %9) #7
  call void @llvm.lifetime.start.p0(i64 8, ptr %10) #7
  call void @llvm.lifetime.start.p0(i64 56, ptr %11) #7
  %13 = load i64, ptr %7, align 8, !tbaa !4
  %14 = icmp eq i64 %13, 0
  br i1 %14, label %15, label %16

15:                                               ; preds = %3
  store i64 0, ptr %4, align 8
  store i32 1, ptr %12, align 4
  br label %57

16:                                               ; preds = %3
  %17 = call ptr @localtime_r(ptr noundef %5, ptr noundef %11) #7
  store ptr %17, ptr %8, align 8, !tbaa !13
  %18 = load ptr, ptr %8, align 8, !tbaa !13
  %19 = getelementptr inbounds nuw %struct.tm, ptr %18, i32 0, i32 5
  %20 = load i32, ptr %19, align 4, !tbaa !33
  %21 = add nsw i32 %20, 1900
  %22 = mul nsw i32 12, %21
  %23 = load ptr, ptr %8, align 8, !tbaa !13
  %24 = getelementptr inbounds nuw %struct.tm, ptr %23, i32 0, i32 4
  %25 = load i32, ptr %24, align 8, !tbaa !36
  %26 = add nsw i32 %22, %25
  %27 = sext i32 %26 to i64
  %28 = load i64, ptr %7, align 8, !tbaa !4
  %29 = add nsw i64 %27, %28
  store i64 %29, ptr %9, align 8, !tbaa !4
  %30 = load i64, ptr %9, align 8, !tbaa !4
  %31 = sdiv i64 %30, 12
  store i64 %31, ptr %10, align 8, !tbaa !4
  %32 = load i64, ptr %9, align 8, !tbaa !4
  %33 = srem i64 %32, 12
  %34 = add nsw i64 %33, 1
  store i64 %34, ptr %9, align 8, !tbaa !4
  %35 = load i64, ptr %5, align 8, !tbaa !4
  %36 = load i64, ptr %9, align 8, !tbaa !4
  %37 = load ptr, ptr %8, align 8, !tbaa !13
  %38 = getelementptr inbounds nuw %struct.tm, ptr %37, i32 0, i32 3
  %39 = load i32, ptr %38, align 4, !tbaa !39
  %40 = sext i32 %39 to i64
  %41 = load i64, ptr %10, align 8, !tbaa !4
  %42 = load ptr, ptr %8, align 8, !tbaa !13
  %43 = getelementptr inbounds nuw %struct.tm, ptr %42, i32 0, i32 2
  %44 = load i32, ptr %43, align 8, !tbaa !47
  %45 = sext i32 %44 to i64
  %46 = load ptr, ptr %8, align 8, !tbaa !13
  %47 = getelementptr inbounds nuw %struct.tm, ptr %46, i32 0, i32 1
  %48 = load i32, ptr %47, align 4, !tbaa !48
  %49 = sext i32 %48 to i64
  %50 = load ptr, ptr %8, align 8, !tbaa !13
  %51 = getelementptr inbounds nuw %struct.tm, ptr %50, i32 0, i32 0
  %52 = load i32, ptr %51, align 8, !tbaa !49
  %53 = sext i32 %52 to i64
  %54 = load i64, ptr %6, align 8, !tbaa !4
  %55 = call i64 @Convert(i64 noundef %36, i64 noundef %40, i64 noundef %41, i64 noundef %45, i64 noundef %49, i64 noundef %53, i64 noundef %54, i32 noundef 2)
  %56 = call i64 @DSTcorrect(i64 noundef %35, i64 noundef %55)
  store i64 %56, ptr %4, align 8
  store i32 1, ptr %12, align 4
  br label %57

57:                                               ; preds = %16, %15
  call void @llvm.lifetime.end.p0(i64 56, ptr %11) #7
  call void @llvm.lifetime.end.p0(i64 8, ptr %10) #7
  call void @llvm.lifetime.end.p0(i64 8, ptr %9) #7
  call void @llvm.lifetime.end.p0(i64 8, ptr %8) #7
  %58 = load i64, ptr %4, align 8
  ret i64 %58
}