; Function Attrs: nounwind uwtable
define internal fastcc i64 @RelativeMonth(i64 noundef %0, i64 noundef %1, i64 noundef %2) unnamed_addr #0 {
  %4 = alloca i64, align 8
  %5 = alloca i64, align 8
  %6 = alloca %struct.tm, align 8
  %7 = alloca i64, align 8
  %8 = alloca %struct.tm, align 8
  store i64 %0, ptr %7, align 8, !tbaa !4
  call void @llvm.lifetime.start.p0(i64 56, ptr nonnull %8) #7
  %9 = icmp eq i64 %2, 0
  br i1 %9, label %52, label %10

10:                                               ; preds = %3
  %11 = call ptr @localtime_r(ptr noundef nonnull %7, ptr noundef nonnull %8) #7
  %12 = getelementptr inbounds nuw i8, ptr %11, i64 20
  %13 = load i32, ptr %12, align 4, !tbaa !8
  %14 = mul i32 %13, 12
  %15 = add i32 %14, 22800
  %16 = getelementptr inbounds nuw i8, ptr %11, i64 16
  %17 = load i32, ptr %16, align 8, !tbaa !49
  %18 = add nsw i32 %15, %17
  %19 = sext i32 %18 to i64
  %20 = add nsw i64 %2, %19
  %21 = sdiv i64 %20, 12
  %22 = srem i64 %20, 12
  %23 = add nsw i64 %22, 1
  %24 = load i64, ptr %7, align 8, !tbaa !4
  %25 = getelementptr inbounds nuw i8, ptr %11, i64 12
  %26 = load i32, ptr %25, align 4, !tbaa !50
  %27 = sext i32 %26 to i64
  %28 = getelementptr inbounds nuw i8, ptr %11, i64 8
  %29 = load i32, ptr %28, align 8, !tbaa !14
  %30 = sext i32 %29 to i64
  %31 = getelementptr inbounds nuw i8, ptr %11, i64 4
  %32 = load i32, ptr %31, align 4, !tbaa !15
  %33 = sext i32 %32 to i64
  %34 = load i32, ptr %11, align 8, !tbaa !16
  %35 = sext i32 %34 to i64
  %36 = call fastcc i64 @Convert(i64 noundef %23, i64 noundef %27, i64 noundef %21, i64 noundef %30, i64 noundef %33, i64 noundef %35, i64 noundef %1, i32 noundef 2)
  call void @llvm.lifetime.start.p0(i64 8, ptr nonnull %4)
  call void @llvm.lifetime.start.p0(i64 8, ptr nonnull %5)
  store i64 %24, ptr %4, align 8, !tbaa !4
  store i64 %36, ptr %5, align 8, !tbaa !4
  call void @llvm.lifetime.start.p0(i64 56, ptr nonnull %6) #7
  %37 = call ptr @localtime_r(ptr noundef nonnull %4, ptr noundef nonnull %6) #7
  %38 = getelementptr inbounds nuw i8, ptr %37, i64 8
  %39 = load i32, ptr %38, align 8, !tbaa !14
  %40 = add nsw i32 %39, 1
  %41 = srem i32 %40, 24
  %42 = call ptr @localtime_r(ptr noundef nonnull %5, ptr noundef nonnull %6) #7
  %43 = getelementptr inbounds nuw i8, ptr %42, i64 8
  %44 = load i32, ptr %43, align 8, !tbaa !14
  %45 = add nsw i32 %44, 1
  %46 = srem i32 %45, 24
  %47 = load i64, ptr %5, align 8, !tbaa !4
  %48 = load i64, ptr %4, align 8, !tbaa !4
  %49 = sub i64 %47, %48
  %narrow.i = sub nsw i32 %41, %46
  %narrow3.i = mul nsw i32 %narrow.i, 3600
  %50 = sext i32 %narrow3.i to i64
  %51 = add nsw i64 %49, %50
  call void @llvm.lifetime.end.p0(i64 56, ptr nonnull %6) #7
  call void @llvm.lifetime.end.p0(i64 8, ptr nonnull %4)
  call void @llvm.lifetime.end.p0(i64 8, ptr nonnull %5)
  br label %52

52:                                               ; preds = %3, %10
  %.0 = phi i64 [ %51, %10 ], [ 0, %3 ]
  call void @llvm.lifetime.end.p0(i64 56, ptr nonnull %8) #7
  ret i64 %.0
}